; Function Attrs: nounwind uwtable
define void @lv_fragment_recreate_obj(ptr noundef %0) local_unnamed_addr #0 {
  %.not = icmp eq ptr %0, null
  br i1 %.not, label %.preheader, label %2

.preheader:                                       ; preds = %1, %.preheader
  br label %.preheader

2:                                                ; preds = %1
  %3 = getelementptr inbounds nuw i8, ptr %0, i64 8
  %4 = load ptr, ptr %3, align 8, !tbaa !14
  %.not5 = icmp eq ptr %4, null
  br i1 %.not5, label %.preheader6, label %5

.preheader6:                                      ; preds = %2, %.preheader6
  br label %.preheader6

5:                                                ; preds = %2
  tail call void @lv_fragment_delete_obj(ptr noundef nonnull %0)
  %6 = load ptr, ptr %3, align 8, !tbaa !14
  %7 = getelementptr inbounds nuw i8, ptr %6, i64 16
  %8 = load ptr, ptr %7, align 8, !tbaa !28
  %9 = load ptr, ptr %8, align 8, !tbaa !30
  %10 = getelementptr inbounds nuw i8, ptr %6, i64 33
  store i8 0, ptr %10, align 1, !tbaa !23
  %11 = load ptr, ptr %0, align 8, !tbaa !10
  %12 = getelementptr inbounds nuw i8, ptr %11, i64 32
  %13 = load ptr, ptr %12, align 8, !tbaa !3
  %14 = tail call ptr %13(ptr noundef nonnull %0, ptr noundef %9) #4
  %.not21.i = icmp eq ptr %14, null
  br i1 %.not21.i, label %.preheader.i, label %15

.preheader.i:                                     ; preds = %5, %.preheader.i
  br label %.preheader.i

15:                                               ; preds = %5
  %16 = getelementptr inbounds nuw i8, ptr %0, i64 24
  store ptr %14, ptr %16, align 8, !tbaa !18
  %17 = getelementptr inbounds nuw i8, ptr %0, i64 16
  %18 = load ptr, ptr %17, align 8, !tbaa !12
  tail call void @lv_fragment_manager_create_obj(ptr noundef %18) #4
  %19 = getelementptr inbounds nuw i8, ptr %6, i64 32
  store i8 1, ptr %19, align 8, !tbaa !20
  %20 = tail call ptr @lv_obj_add_event_cb(ptr noundef nonnull %14, ptr noundef nonnull @cb_delete_assertion, i32 noundef 41, ptr noundef null) #4
  %21 = getelementptr inbounds nuw i8, ptr %11, i64 40
  %22 = load ptr, ptr %21, align 8, !tbaa !29
  %.not22.i = icmp eq ptr %22, null
  br i1 %.not22.i, label %lv_fragment_create_obj.exit, label %23

23:                                               ; preds = %15
  tail call void %22(ptr noundef nonnull %0, ptr noundef nonnull %14) #4
  br label %lv_fragment_create_obj.exit

lv_fragment_create_obj.exit:                      ; preds = %15, %23
  ret void
}